target datalayout = "e-m:e-p270:32:32-p271:32:32-p272:64:64-i64:64-i128:128-f80:128-n8:16:32:64-S128"
target triple = "x86_64-pc-linux-gnu"

%struct.strbuf = type { i64, i64, ptr }
%struct.update_info_ctx = type { ptr, ptr, ptr, %struct.strbuf, %struct.strbuf }
%struct.__va_list_tag = type { i32, i32, ptr, ptr }

@strbuf_slopbuf = external global [0 x i8], align 1
@.str.8 = private unnamed_addr constant [11 x i8] c"./strbuf.h\00", align 1
@.str.9 = private unnamed_addr constant [30 x i8] c"strbuf_setlen() beyond buffer\00", align 1

; Function Attrs: nounwind uwtable
define internal void @uic_mark_stale(ptr noundef %0) #0 {
  %2 = alloca ptr, align 8
  store ptr %0, ptr %2, align 8, !tbaa !30
  %3 = load ptr, ptr %2, align 8, !tbaa !30
  %4 = getelementptr inbounds nuw %struct.update_info_ctx, ptr %3, i32 0, i32 2
  %5 = load ptr, ptr %4, align 8, !tbaa !22
  %6 = call i32 @fclose(ptr noundef %5)
  %7 = load ptr, ptr %2, align 8, !tbaa !30
  %8 = getelementptr inbounds nuw %struct.update_info_ctx, ptr %7, i32 0, i32 2
  store ptr null, ptr %8, align 8, !tbaa !22
  ret void
}

; Function Attrs: inlinehint nounwind uwtable
define internal void @strbuf_setlen(ptr noundef %0, i64 noundef %1) #4 {
  %3 = alloca ptr, align 8
  %4 = alloca i64, align 8
  store ptr %0, ptr %3, align 8, !tbaa !36
  store i64 %1, ptr %4, align 8, !tbaa !26
  %5 = load i64, ptr %4, align 8, !tbaa !26
  %6 = load ptr, ptr %3, align 8, !tbaa !36
  %7 = getelementptr inbounds nuw %struct.strbuf, ptr %6, i32 0, i32 0
  %8 = load i64, ptr %7, align 8, !tbaa !23
  %9 = icmp ne i64 %8, 0
  br i1 %9, label %10, label %15

10:                                               ; preds = %2
  %11 = load ptr, ptr %3, align 8, !tbaa !36
  %12 = getelementptr inbounds nuw %struct.strbuf, ptr %11, i32 0, i32 0
  %13 = load i64, ptr %12, align 8, !tbaa !23
  %14 = sub i64 %13, 1
  br label %16

15:                                               ; preds = %2
  br label %16

16:                                               ; preds = %15, %10
  %17 = phi i64 [ %14, %10 ], [ 0, %15 ]
  %18 = icmp ugt i64 %5, %17
  br i1 %18, label %19, label %20

19:                                               ; preds = %16
  call void (ptr, i32, ptr, ...) @BUG_fl(ptr noundef @.str.8, i32 noundef 167, ptr noundef @.str.9) #11
  unreachable

20:                                               ; preds = %16
  %21 = load i64, ptr %4, align 8, !tbaa !26
  %22 = load ptr, ptr %3, align 8, !tbaa !36
  %23 = getelementptr inbounds nuw %struct.strbuf, ptr %22, i32 0, i32 1
  store i64 %21, ptr %23, align 8, !tbaa !24
  %24 = load ptr, ptr %3, align 8, !tbaa !36
  %25 = getelementptr inbounds nuw %struct.strbuf, ptr %24, i32 0, i32 2
  %26 = load ptr, ptr %25, align 8, !tbaa !25
  %27 = icmp ne ptr %26, @strbuf_slopbuf
  br i1 %27, label %28, label %34

28:                                               ; preds = %20
  %29 = load ptr, ptr %3, align 8, !tbaa !36
  %30 = getelementptr inbounds nuw %struct.strbuf, ptr %29, i32 0, i32 2
  %31 = load ptr, ptr %30, align 8, !tbaa !25
  %32 = load i64, ptr %4, align 8, !tbaa !26
  %33 = getelementptr inbounds nuw i8, ptr %31, i64 %32
  store i8 0, ptr %33, align 1, !tbaa !38
  br label %35

34:                                               ; preds = %20
  br label %35

35:                                               ; preds = %34, %28
  ret void
}

; Function Attrs: nounwind uwtable
define internal i32 @uic_is_stale(ptr noundef %0) #0 {
  %2 = alloca ptr, align 8
  store ptr %0, ptr %2, align 8, !tbaa !30
  %3 = load ptr, ptr %2, align 8, !tbaa !30
  %4 = getelementptr inbounds nuw %struct.update_info_ctx, ptr %3, i32 0, i32 2
  %5 = load ptr, ptr %4, align 8, !tbaa !22
  %6 = icmp eq ptr %5, null
  %7 = zext i1 %6 to i32
  ret i32 %7
}

; Function Attrs: nounwind uwtable
define internal i32 @uic_printf(ptr noundef %0, ptr noundef %1, ...) #0 {
  %3 = alloca ptr, align 8
  %4 = alloca ptr, align 8
  %5 = alloca [1 x %struct.__va_list_tag], align 16
  %6 = alloca i32, align 4
  %7 = alloca i64, align 8
  %8 = alloca ptr, align 8
  %9 = alloca ptr, align 8
  store ptr %0, ptr %3, align 8, !tbaa !30
  store ptr %1, ptr %4, align 8, !tbaa !11
  call void @llvm.lifetime.start.p0(i64 24, ptr %5) #9
  call void @llvm.lifetime.start.p0(i64 4, ptr %6) #9
  store i32 -1, ptr %6, align 4, !tbaa !9
  %10 = getelementptr inbounds [1 x %struct.__va_list_tag], ptr %5, i64 0, i64 0
  call void @llvm.va_start.p0(ptr %10)
  %11 = load ptr, ptr %3, align 8, !tbaa !30
  %12 = call i32 @uic_is_stale(ptr noundef %11)
  %13 = icmp ne i32 %12, 0
  br i1 %13, label %14, label %21

14:                                               ; preds = %2
  %15 = load ptr, ptr %3, align 8, !tbaa !30
  %16 = getelementptr inbounds nuw %struct.update_info_ctx, ptr %15, i32 0, i32 1
  %17 = load ptr, ptr %16, align 8, !tbaa !21
  %18 = load ptr, ptr %4, align 8, !tbaa !11
  %19 = getelementptr inbounds [1 x %struct.__va_list_tag], ptr %5, i64 0, i64 0
  %20 = call i32 @vfprintf(ptr noundef %17, ptr noundef %18, ptr noundef %19) #9
  store i32 %20, ptr %6, align 4, !tbaa !9
  br label %79

21:                                               ; preds = %2
  call void @llvm.lifetime.start.p0(i64 8, ptr %7) #9
  call void @llvm.lifetime.start.p0(i64 8, ptr %8) #9
  %22 = load ptr, ptr %3, align 8, !tbaa !30
  %23 = getelementptr inbounds nuw %struct.update_info_ctx, ptr %22, i32 0, i32 3
  store ptr %23, ptr %8, align 8, !tbaa !36
  call void @llvm.lifetime.start.p0(i64 8, ptr %9) #9
  %24 = load ptr, ptr %3, align 8, !tbaa !30
  %25 = getelementptr inbounds nuw %struct.update_info_ctx, ptr %24, i32 0, i32 4
  store ptr %25, ptr %9, align 8, !tbaa !36
  %26 = load ptr, ptr %8, align 8, !tbaa !36
  call void @strbuf_setlen(ptr noundef %26, i64 noundef 0)
  %27 = load ptr, ptr %8, align 8, !tbaa !36
  %28 = load ptr, ptr %4, align 8, !tbaa !11
  %29 = getelementptr inbounds [1 x %struct.__va_list_tag], ptr %5, i64 0, i64 0
  call void @strbuf_vinsertf(ptr noundef %27, i64 noundef 0, ptr noundef %28, ptr noundef %29)
  %30 = load ptr, ptr %9, align 8, !tbaa !36
  call void @strbuf_setlen(ptr noundef %30, i64 noundef 0)
  %31 = load ptr, ptr %9, align 8, !tbaa !36
  %32 = load ptr, ptr %8, align 8, !tbaa !36
  %33 = getelementptr inbounds nuw %struct.strbuf, ptr %32, i32 0, i32 1
  %34 = load i64, ptr %33, align 8, !tbaa !24
  call void @strbuf_grow(ptr noundef %31, i64 noundef %34)
  %35 = load ptr, ptr %9, align 8, !tbaa !36
  %36 = getelementptr inbounds nuw %struct.strbuf, ptr %35, i32 0, i32 2
  %37 = load ptr, ptr %36, align 8, !tbaa !25
  %38 = load ptr, ptr %8, align 8, !tbaa !36
  %39 = getelementptr inbounds nuw %struct.strbuf, ptr %38, i32 0, i32 1
  %40 = load i64, ptr %39, align 8, !tbaa !24
  %41 = load ptr, ptr %3, align 8, !tbaa !30
  %42 = getelementptr inbounds nuw %struct.update_info_ctx, ptr %41, i32 0, i32 2
  %43 = load ptr, ptr %42, align 8, !tbaa !22
  %44 = call i64 @fread(ptr noundef %37, i64 noundef 1, i64 noundef %40, ptr noundef %43)
  store i64 %44, ptr %7, align 8, !tbaa !26
  %45 = load i64, ptr %7, align 8, !tbaa !26
  %46 = load ptr, ptr %8, align 8, !tbaa !36
  %47 = getelementptr inbounds nuw %struct.strbuf, ptr %46, i32 0, i32 1
  %48 = load i64, ptr %47, align 8, !tbaa !24
  %49 = icmp ne i64 %45, %48
  br i1 %49, label %60, label %50

50:                                               ; preds = %21
  %51 = load ptr, ptr %9, align 8, !tbaa !36
  %52 = getelementptr inbounds nuw %struct.strbuf, ptr %51, i32 0, i32 2
  %53 = load ptr, ptr %52, align 8, !tbaa !25
  %54 = load ptr, ptr %8, align 8, !tbaa !36
  %55 = getelementptr inbounds nuw %struct.strbuf, ptr %54, i32 0, i32 2
  %56 = load ptr, ptr %55, align 8, !tbaa !25
  %57 = load i64, ptr %7, align 8, !tbaa !26
  %58 = call i32 @memcmp(ptr noundef %53, ptr noundef %56, i64 noundef %57) #10
  %59 = icmp ne i32 %58, 0
  br i1 %59, label %60, label %62

60:                                               ; preds = %50, %21
  %61 = load ptr, ptr %3, align 8, !tbaa !30
  call void @uic_mark_stale(ptr noundef %61)
  br label %62

62:                                               ; preds = %60, %50
  %63 = load ptr, ptr %8, align 8, !tbaa !36
  %64 = getelementptr inbounds nuw %struct.strbuf, ptr %63, i32 0, i32 2
  %65 = load ptr, ptr %64, align 8, !tbaa !25
  %66 = load ptr, ptr %8, align 8, !tbaa !36
  %67 = getelementptr inbounds nuw %struct.strbuf, ptr %66, i32 0, i32 1
  %68 = load i64, ptr %67, align 8, !tbaa !24
  %69 = load ptr, ptr %3, align 8, !tbaa !30
  %70 = getelementptr inbounds nuw %struct.update_info_ctx, ptr %69, i32 0, i32 1
  %71 = load ptr, ptr %70, align 8, !tbaa !21
  %72 = call i64 @fwrite(ptr noundef %65, i64 noundef 1, i64 noundef %68, ptr noundef %71)
  %73 = load ptr, ptr %8, align 8, !tbaa !36
  %74 = getelementptr inbounds nuw %struct.strbuf, ptr %73, i32 0, i32 1
  %75 = load i64, ptr %74, align 8, !tbaa !24
  %76 = icmp eq i64 %72, %75
  br i1 %76, label %77, label %78

77:                                               ; preds = %62
  store i32 0, ptr %6, align 4, !tbaa !9
  br label %78

78:                                               ; preds = %77, %62
  call void @llvm.lifetime.end.p0(i64 8, ptr %9) #9
  call void @llvm.lifetime.end.p0(i64 8, ptr %8) #9
  call void @llvm.lifetime.end.p0(i64 8, ptr %7) #9
  br label %79

79:                                               ; preds = %78, %14
  %80 = getelementptr inbounds [1 x %struct.__va_list_tag], ptr %5, i64 0, i64 0
  call void @llvm.va_end.p0(ptr %80)
  %81 = load i32, ptr %6, align 4, !tbaa !9
  call void @llvm.lifetime.end.p0(i64 4, ptr %6) #9
  call void @llvm.lifetime.end.p0(i64 24, ptr %5) #9
  ret i32 %81
}