; Function Attrs: nounwind uwtable
define internal i32 @uic_printf(ptr noundef %0, ptr noundef %1, ...) unnamed_addr #0 {
  %3 = alloca [1 x %struct.__va_list_tag], align 16
  call void @llvm.lifetime.start.p0(i64 24, ptr nonnull %3) #14
  call void @llvm.va_start.p0(ptr nonnull %3)
  %4 = getelementptr i8, ptr %0, i64 16
  %.val = load ptr, ptr %4, align 8, !tbaa !40
  %.not = icmp eq ptr %.val, null
  br i1 %.not, label %5, label %9

5:                                                ; preds = %2
  %6 = getelementptr inbounds nuw i8, ptr %0, i64 8
  %7 = load ptr, ptr %6, align 8, !tbaa !39
  %8 = call i32 @vfprintf(ptr noundef %7, ptr noundef %1, ptr noundef nonnull %3) #14
  br label %40

9:                                                ; preds = %2
  %10 = getelementptr inbounds nuw i8, ptr %0, i64 24
  %11 = getelementptr inbounds nuw i8, ptr %0, i64 48
  %12 = getelementptr inbounds nuw i8, ptr %0, i64 32
  store i64 0, ptr %12, align 8, !tbaa !20
  %13 = getelementptr inbounds nuw i8, ptr %0, i64 40
  %14 = load ptr, ptr %13, align 8, !tbaa !25
  %.not9.i = icmp eq ptr %14, @strbuf_slopbuf
  br i1 %.not9.i, label %strbuf_setlen.exit, label %15

15:                                               ; preds = %9
  store i8 0, ptr %14, align 1, !tbaa !26
  br label %strbuf_setlen.exit

strbuf_setlen.exit:                               ; preds = %9, %15
  call void @strbuf_vinsertf(ptr noundef nonnull %10, i64 noundef 0, ptr noundef %1, ptr noundef nonnull %3) #14
  %16 = getelementptr inbounds nuw i8, ptr %0, i64 56
  store i64 0, ptr %16, align 8, !tbaa !20
  %17 = getelementptr inbounds nuw i8, ptr %0, i64 64
  %18 = load ptr, ptr %17, align 8, !tbaa !25
  %.not9.i27 = icmp eq ptr %18, @strbuf_slopbuf
  br i1 %.not9.i27, label %strbuf_setlen.exit28, label %19

19:                                               ; preds = %strbuf_setlen.exit
  store i8 0, ptr %18, align 1, !tbaa !26
  br label %strbuf_setlen.exit28

strbuf_setlen.exit28:                             ; preds = %strbuf_setlen.exit, %19
  %20 = load i64, ptr %12, align 8, !tbaa !20
  call void @strbuf_grow(ptr noundef nonnull %11, i64 noundef %20) #14
  %21 = load ptr, ptr %17, align 8, !tbaa !25
  %22 = load i64, ptr %12, align 8, !tbaa !20
  %23 = load ptr, ptr %4, align 8, !tbaa !40
  %24 = call i64 @fread(ptr noundef %21, i64 noundef 1, i64 noundef %22, ptr noundef %23)
  %25 = load i64, ptr %12, align 8, !tbaa !20
  %.not25 = icmp eq i64 %24, %25
  br i1 %.not25, label %26, label %29

26:                                               ; preds = %strbuf_setlen.exit28
  %27 = load ptr, ptr %17, align 8, !tbaa !25
  %28 = load ptr, ptr %13, align 8, !tbaa !25
  %bcmp = call i32 @bcmp(ptr %27, ptr %28, i64 %24)
  %.not26 = icmp eq i32 %bcmp, 0
  br i1 %.not26, label %32, label %29

29:                                               ; preds = %26, %strbuf_setlen.exit28
  %30 = load ptr, ptr %4, align 8, !tbaa !40
  %31 = call i32 @fclose(ptr noundef %30)
  store ptr null, ptr %4, align 8, !tbaa !40
  %.pre = load ptr, ptr %13, align 8, !tbaa !25
  %.pre29 = load i64, ptr %12, align 8, !tbaa !20
  br label %32

32:                                               ; preds = %29, %26
  %33 = phi i64 [ %.pre29, %29 ], [ %24, %26 ]
  %34 = phi ptr [ %.pre, %29 ], [ %28, %26 ]
  %35 = getelementptr inbounds nuw i8, ptr %0, i64 8
  %36 = load ptr, ptr %35, align 8, !tbaa !39
  %37 = call i64 @fwrite(ptr noundef %34, i64 noundef 1, i64 noundef %33, ptr noundef %36)
  %38 = load i64, ptr %12, align 8, !tbaa !20
  %39 = icmp ne i64 %37, %38
  %spec.select = sext i1 %39 to i32
  br label %40

40:                                               ; preds = %32, %5
  %.0 = phi i32 [ %8, %5 ], [ %spec.select, %32 ]
  call void @llvm.va_end.p0(ptr nonnull %3)
  call void @llvm.lifetime.end.p0(i64 24, ptr nonnull %3) #14
  ret i32 %.0
}